; ModuleID = '31/2052.c'
source_filename = "31/2052.c"
target datalayout = "e-m:e-p270:32:32-p271:32:32-p272:64:64-i64:64-f80:128-n8:16:32:64-S128"
target triple = "x86_64-pc-linux-gnu"

%struct.student = type { [50 x i8], %struct.student* }

@.str = private unnamed_addr constant [3 x i8] c"%s\00", align 1
@.str.1 = private unnamed_addr constant [2 x i8] c"\0A\00", align 1

; Function Attrs: noinline nounwind uwtable
define dso_local i32 @main() #0 {
  %1 = alloca i32, align 4
  %2 = alloca %struct.student*, align 8
  %3 = alloca %struct.student*, align 8
  store i32 0, i32* %1, align 4
  %4 = call noalias i8* @malloc(i64 100) #3
  %5 = bitcast i8* %4 to %struct.student*
  store %struct.student* %5, %struct.student** %3, align 8
  %6 = load %struct.student*, %struct.student** %3, align 8
  %7 = getelementptr inbounds %struct.student, %struct.student* %6, i32 0, i32 0
  %8 = getelementptr inbounds [50 x i8], [50 x i8]* %7, i64 0, i64 0
  %9 = call i32 (i8*, ...) bitcast (i32 (...)* @gets to i32 (i8*, ...)*)(i8* %8)
  store %struct.student* null, %struct.student** %2, align 8
  br label %10

10:                                               ; preds = %17, %0
  %11 = load %struct.student*, %struct.student** %3, align 8
  %12 = getelementptr inbounds %struct.student, %struct.student* %11, i32 0, i32 0
  %13 = getelementptr inbounds [50 x i8], [50 x i8]* %12, i64 0, i64 0
  %14 = load i8, i8* %13, align 8
  %15 = sext i8 %14 to i32
  %16 = icmp ne i32 %15, 101
  br i1 %16, label %17, label %28

17:                                               ; preds = %10
  %18 = load %struct.student*, %struct.student** %2, align 8
  %19 = load %struct.student*, %struct.student** %3, align 8
  %20 = getelementptr inbounds %struct.student, %struct.student* %19, i32 0, i32 1
  store %struct.student* %18, %struct.student** %20, align 8
  %21 = load %struct.student*, %struct.student** %3, align 8
  store %struct.student* %21, %struct.student** %2, align 8
  %22 = call noalias i8* @malloc(i64 100) #3
  %23 = bitcast i8* %22 to %struct.student*
  store %struct.student* %23, %struct.student** %3, align 8
  %24 = load %struct.student*, %struct.student** %3, align 8
  %25 = getelementptr inbounds %struct.student, %struct.student* %24, i32 0, i32 0
  %26 = getelementptr inbounds [50 x i8], [50 x i8]* %25, i64 0, i64 0
  %27 = call i32 (i8*, ...) bitcast (i32 (...)* @gets to i32 (i8*, ...)*)(i8* %26)
  br label %10

28:                                               ; preds = %10
  %29 = load %struct.student*, %struct.student** %2, align 8
  store %struct.student* %29, %struct.student** %3, align 8
  br label %30

30:                                               ; preds = %28, %43
  %31 = load %struct.student*, %struct.student** %3, align 8
  %32 = getelementptr inbounds %struct.student, %struct.student* %31, i32 0, i32 0
  %33 = getelementptr inbounds [50 x i8], [50 x i8]* %32, i64 0, i64 0
  %34 = call i32 (i8*, ...) @printf(i8* getelementptr inbounds ([3 x i8], [3 x i8]* @.str, i64 0, i64 0), i8* %33)
  %35 = load %struct.student*, %struct.student** %3, align 8
  %36 = getelementptr inbounds %struct.student, %struct.student* %35, i32 0, i32 1
  %37 = load %struct.student*, %struct.student** %36, align 8
  store %struct.student* %37, %struct.student** %3, align 8
  %38 = load %struct.student*, %struct.student** %3, align 8
  %39 = icmp eq %struct.student* %38, null
  br i1 %39, label %40, label %41

40:                                               ; preds = %30
  br label %44

41:                                               ; preds = %30
  %42 = call i32 (i8*, ...) @printf(i8* getelementptr inbounds ([2 x i8], [2 x i8]* @.str.1, i64 0, i64 0))
  br label %43

43:                                               ; preds = %41
  br label %30

44:                                               ; preds = %40
  ret i32 0
}

; Function Attrs: nounwind
declare dso_local noalias i8* @malloc(i64) #1

declare dso_local i32 @gets(...) #2

declare dso_local i32 @printf(i8*, ...) #2


!llvm.module.flags = !{!0}
!llvm.ident = !{!1}

!0 = !{i32 1, !"wchar_size", i32 4}
!1 = !{!"clang version 10.0.0-4ubuntu1 "}
