; ModuleID = 'source-C-CXX/30/2052.c'
source_filename = "source-C-CXX/30/2052.c"
target datalayout = "e-m:e-p270:32:32-p271:32:32-p272:64:64-i64:64-f80:128-n8:16:32:64-S128"
target triple = "x86_64-pc-linux-gnu"

%struct.student = type { [50 x i8], %struct.student* }

@.str = private unnamed_addr constant [3 x i8] c"%s\00", align 1

; Function Attrs: nounwind sspstrong uwtable
define dso_local i32 @main() local_unnamed_addr #0 {
  %1 = tail call noalias align 16 dereferenceable_or_null(100) i8* @malloc(i64 100) #5
  %2 = bitcast i8* %1 to %struct.student*
  %3 = getelementptr inbounds %struct.student, %struct.student* %2, i64 0, i32 0, i64 0
  %4 = tail call i32 (i8*, ...) bitcast (i32 (...)* @gets to i32 (i8*, ...)*)(i8* %3) #5
  %5 = load i8, i8* %3, align 16, !tbaa !5
  %6 = icmp eq i8 %5, 101
  br i1 %6, label %7, label %14

7:                                                ; preds = %14, %0
  %8 = phi %struct.student* [ null, %0 ], [ %15, %14 ]
  %9 = getelementptr inbounds %struct.student, %struct.student* %8, i64 0, i32 0, i64 0
  %10 = tail call i32 (i8*, ...) @printf(i8* nonnull dereferenceable(1) getelementptr inbounds ([3 x i8], [3 x i8]* @.str, i64 0, i64 0), i8* %9)
  %11 = getelementptr inbounds %struct.student, %struct.student* %8, i64 0, i32 1
  %12 = load %struct.student*, %struct.student** %11, align 8, !tbaa !8
  %13 = icmp eq %struct.student* %12, null
  br i1 %13, label %32, label %24

14:                                               ; preds = %0, %14
  %15 = phi %struct.student* [ %19, %14 ], [ %2, %0 ]
  %16 = phi %struct.student* [ %15, %14 ], [ null, %0 ]
  %17 = getelementptr inbounds %struct.student, %struct.student* %15, i64 0, i32 1
  store %struct.student* %16, %struct.student** %17, align 8, !tbaa !8
  %18 = tail call noalias align 16 dereferenceable_or_null(100) i8* @malloc(i64 100) #5
  %19 = bitcast i8* %18 to %struct.student*
  %20 = getelementptr inbounds %struct.student, %struct.student* %19, i64 0, i32 0, i64 0
  %21 = tail call i32 (i8*, ...) bitcast (i32 (...)* @gets to i32 (i8*, ...)*)(i8* %20) #5
  %22 = load i8, i8* %20, align 16, !tbaa !5
  %23 = icmp eq i8 %22, 101
  br i1 %23, label %7, label %14, !llvm.loop !11

24:                                               ; preds = %7, %24
  %25 = phi %struct.student* [ %30, %24 ], [ %12, %7 ]
  %26 = tail call i32 @putchar(i32 10)
  %27 = getelementptr inbounds %struct.student, %struct.student* %25, i64 0, i32 0, i64 0
  %28 = tail call i32 (i8*, ...) @printf(i8* nonnull dereferenceable(1) getelementptr inbounds ([3 x i8], [3 x i8]* @.str, i64 0, i64 0), i8* %27)
  %29 = getelementptr inbounds %struct.student, %struct.student* %25, i64 0, i32 1
  %30 = load %struct.student*, %struct.student** %29, align 8, !tbaa !8
  %31 = icmp eq %struct.student* %30, null
  br i1 %31, label %32, label %24

32:                                               ; preds = %24, %7
  ret i32 0
}

; Function Attrs: inaccessiblememonly mustprogress nofree nounwind willreturn
declare noalias noundef align 16 i8* @malloc(i64 noundef) local_unnamed_addr #1

declare i32 @gets(...) local_unnamed_addr #2

; Function Attrs: nofree nounwind
declare noundef i32 @printf(i8* nocapture noundef readonly, ...) local_unnamed_addr #3

; Function Attrs: nofree nounwind
declare noundef i32 @putchar(i32 noundef) local_unnamed_addr #4


!llvm.module.flags = !{!0, !1, !2, !3}
!llvm.ident = !{!4}

!0 = !{i32 1, !"wchar_size", i32 4}
!1 = !{i32 7, !"PIC Level", i32 2}
!2 = !{i32 7, !"PIE Level", i32 2}
!3 = !{i32 7, !"uwtable", i32 1}
!4 = !{!"clang version 13.0.0"}
!5 = !{!6, !6, i64 0}
!6 = !{!"omnipotent char", !7, i64 0}
!7 = !{!"Simple C/C++ TBAA"}
!8 = !{!9, !10, i64 56}
!9 = !{!"student", !6, i64 0, !10, i64 56}
!10 = !{!"any pointer", !6, i64 0}
!11 = distinct !{!11, !12}
!12 = !{!"llvm.loop.mustprogress"}
